target datalayout = "e-m:e-p270:32:32-p271:32:32-p272:64:64-i64:64-i128:128-f80:128-n8:16:32:64-S128"
target triple = "x86_64-pc-linux-gnu"

%struct.CPpmd7 = type { ptr, ptr, ptr, i32, i32, i32, i32, i32, i32, i32, i32, i32, ptr, ptr, ptr, ptr, ptr, i32, [38 x i8], [128 x i8], [38 x i32], [256 x i8], [256 x i8], [256 x i8], %struct.CPpmd_See, [25 x [16 x %struct.CPpmd_See]], [128 x [64 x i16]] }
%struct.CPpmd_See = type { i16, i8, i8 }
%struct.CPpmd7_Context_ = type { i16, i16, i32, i32 }

; Function Attrs: nounwind uwtable
define ptr @Ppmd7_MakeEscFreq(ptr noundef %0, i32 noundef %1, ptr noundef %2) #0 {
  %4 = alloca ptr, align 8
  %5 = alloca i32, align 4
  %6 = alloca ptr, align 8
  %7 = alloca ptr, align 8
  %8 = alloca i32, align 4
  %9 = alloca i32, align 4
  store ptr %0, ptr %4, align 8, !tbaa !3
  store i32 %1, ptr %5, align 4, !tbaa !14
  store ptr %2, ptr %6, align 8, !tbaa !51
  call void @llvm.lifetime.start.p0(i64 8, ptr %7) #4
  call void @llvm.lifetime.start.p0(i64 4, ptr %8) #4
  %10 = load ptr, ptr %4, align 8, !tbaa !3
  %11 = getelementptr inbounds nuw %struct.CPpmd7, ptr %10, i32 0, i32 0
  %12 = load ptr, ptr %11, align 8, !tbaa !35
  %13 = getelementptr inbounds nuw %struct.CPpmd7_Context_, ptr %12, i32 0, i32 0
  %14 = load i16, ptr %13, align 4, !tbaa !38
  %15 = zext i16 %14 to i32
  %16 = load i32, ptr %5, align 4, !tbaa !14
  %17 = sub i32 %15, %16
  store i32 %17, ptr %8, align 4, !tbaa !14
  %18 = load ptr, ptr %4, align 8, !tbaa !3
  %19 = getelementptr inbounds nuw %struct.CPpmd7, ptr %18, i32 0, i32 0
  %20 = load ptr, ptr %19, align 8, !tbaa !35
  %21 = getelementptr inbounds nuw %struct.CPpmd7_Context_, ptr %20, i32 0, i32 0
  %22 = load i16, ptr %21, align 4, !tbaa !38
  %23 = zext i16 %22 to i32
  %24 = icmp ne i32 %23, 256
  br i1 %24, label %25, label %117

25:                                               ; preds = %3
  %26 = load ptr, ptr %4, align 8, !tbaa !3
  %27 = getelementptr inbounds nuw %struct.CPpmd7, ptr %26, i32 0, i32 25
  %28 = load ptr, ptr %4, align 8, !tbaa !3
  %29 = getelementptr inbounds nuw %struct.CPpmd7, ptr %28, i32 0, i32 21
  %30 = load i32, ptr %8, align 4, !tbaa !14
  %31 = sub i32 %30, 1
  %32 = zext i32 %31 to i64
  %33 = getelementptr inbounds nuw [256 x i8], ptr %29, i64 0, i64 %32
  %34 = load i8, ptr %33, align 1, !tbaa !15
  %35 = zext i8 %34 to i64
  %36 = getelementptr inbounds nuw [25 x [16 x %struct.CPpmd_See]], ptr %27, i64 0, i64 %35
  %37 = getelementptr inbounds [16 x %struct.CPpmd_See], ptr %36, i64 0, i64 0
  %38 = load i32, ptr %8, align 4, !tbaa !14
  %39 = load ptr, ptr %4, align 8, !tbaa !3
  %40 = getelementptr inbounds nuw %struct.CPpmd7, ptr %39, i32 0, i32 12
  %41 = load ptr, ptr %40, align 8, !tbaa !7
  %42 = load ptr, ptr %4, align 8, !tbaa !3
  %43 = getelementptr inbounds nuw %struct.CPpmd7, ptr %42, i32 0, i32 0
  %44 = load ptr, ptr %43, align 8, !tbaa !35
  %45 = getelementptr inbounds nuw %struct.CPpmd7_Context_, ptr %44, i32 0, i32 3
  %46 = load i32, ptr %45, align 4, !tbaa !36
  %47 = zext i32 %46 to i64
  %48 = getelementptr inbounds nuw i8, ptr %41, i64 %47
  %49 = getelementptr inbounds nuw %struct.CPpmd7_Context_, ptr %48, i32 0, i32 0
  %50 = load i16, ptr %49, align 4, !tbaa !38
  %51 = zext i16 %50 to i32
  %52 = load ptr, ptr %4, align 8, !tbaa !3
  %53 = getelementptr inbounds nuw %struct.CPpmd7, ptr %52, i32 0, i32 0
  %54 = load ptr, ptr %53, align 8, !tbaa !35
  %55 = getelementptr inbounds nuw %struct.CPpmd7_Context_, ptr %54, i32 0, i32 0
  %56 = load i16, ptr %55, align 4, !tbaa !38
  %57 = zext i16 %56 to i32
  %58 = sub i32 %51, %57
  %59 = icmp ult i32 %38, %58
  %60 = zext i1 %59 to i32
  %61 = sext i32 %60 to i64
  %62 = getelementptr inbounds %struct.CPpmd_See, ptr %37, i64 %61
  %63 = load ptr, ptr %4, align 8, !tbaa !3
  %64 = getelementptr inbounds nuw %struct.CPpmd7, ptr %63, i32 0, i32 0
  %65 = load ptr, ptr %64, align 8, !tbaa !35
  %66 = getelementptr inbounds nuw %struct.CPpmd7_Context_, ptr %65, i32 0, i32 1
  %67 = load i16, ptr %66, align 2, !tbaa !39
  %68 = zext i16 %67 to i32
  %69 = load ptr, ptr %4, align 8, !tbaa !3
  %70 = getelementptr inbounds nuw %struct.CPpmd7, ptr %69, i32 0, i32 0
  %71 = load ptr, ptr %70, align 8, !tbaa !35
  %72 = getelementptr inbounds nuw %struct.CPpmd7_Context_, ptr %71, i32 0, i32 0
  %73 = load i16, ptr %72, align 4, !tbaa !38
  %74 = zext i16 %73 to i32
  %75 = mul nsw i32 11, %74
  %76 = icmp slt i32 %68, %75
  %77 = zext i1 %76 to i32
  %78 = mul nsw i32 2, %77
  %79 = sext i32 %78 to i64
  %80 = getelementptr inbounds %struct.CPpmd_See, ptr %62, i64 %79
  %81 = load i32, ptr %5, align 4, !tbaa !14
  %82 = load i32, ptr %8, align 4, !tbaa !14
  %83 = icmp ugt i32 %81, %82
  %84 = zext i1 %83 to i32
  %85 = mul nsw i32 4, %84
  %86 = sext i32 %85 to i64
  %87 = getelementptr inbounds %struct.CPpmd_See, ptr %80, i64 %86
  %88 = load ptr, ptr %4, align 8, !tbaa !3
  %89 = getelementptr inbounds nuw %struct.CPpmd7, ptr %88, i32 0, i32 7
  %90 = load i32, ptr %89, align 8, !tbaa !53
  %91 = zext i32 %90 to i64
  %92 = getelementptr inbounds nuw %struct.CPpmd_See, ptr %87, i64 %91
  store ptr %92, ptr %7, align 8, !tbaa !3
  call void @llvm.lifetime.start.p0(i64 4, ptr %9) #4
  %93 = load ptr, ptr %7, align 8, !tbaa !3
  %94 = getelementptr inbounds nuw %struct.CPpmd_See, ptr %93, i32 0, i32 0
  %95 = load i16, ptr %94, align 2, !tbaa !49
  %96 = zext i16 %95 to i32
  %97 = load ptr, ptr %7, align 8, !tbaa !3
  %98 = getelementptr inbounds nuw %struct.CPpmd_See, ptr %97, i32 0, i32 1
  %99 = load i8, ptr %98, align 2, !tbaa !48
  %100 = zext i8 %99 to i32
  %101 = ashr i32 %96, %100
  store i32 %101, ptr %9, align 4, !tbaa !14
  %102 = load ptr, ptr %7, align 8, !tbaa !3
  %103 = getelementptr inbounds nuw %struct.CPpmd_See, ptr %102, i32 0, i32 0
  %104 = load i16, ptr %103, align 2, !tbaa !49
  %105 = zext i16 %104 to i32
  %106 = load i32, ptr %9, align 4, !tbaa !14
  %107 = sub i32 %105, %106
  %108 = trunc i32 %107 to i16
  %109 = load ptr, ptr %7, align 8, !tbaa !3
  %110 = getelementptr inbounds nuw %struct.CPpmd_See, ptr %109, i32 0, i32 0
  store i16 %108, ptr %110, align 2, !tbaa !49
  %111 = load i32, ptr %9, align 4, !tbaa !14
  %112 = load i32, ptr %9, align 4, !tbaa !14
  %113 = icmp eq i32 %112, 0
  %114 = zext i1 %113 to i32
  %115 = add i32 %111, %114
  %116 = load ptr, ptr %6, align 8, !tbaa !51
  store i32 %115, ptr %116, align 4, !tbaa !14
  call void @llvm.lifetime.end.p0(i64 4, ptr %9) #4
  br label %121

117:                                              ; preds = %3
  %118 = load ptr, ptr %4, align 8, !tbaa !3
  %119 = getelementptr inbounds nuw %struct.CPpmd7, ptr %118, i32 0, i32 24
  store ptr %119, ptr %7, align 8, !tbaa !3
  %120 = load ptr, ptr %6, align 8, !tbaa !51
  store i32 1, ptr %120, align 4, !tbaa !14
  br label %121

121:                                              ; preds = %117, %25
  %122 = load ptr, ptr %7, align 8, !tbaa !3
  call void @llvm.lifetime.end.p0(i64 4, ptr %8) #4
  call void @llvm.lifetime.end.p0(i64 8, ptr %7) #4
  ret ptr %122
}