; Function Attrs: mustprogress nofree norecurse nosync nounwind willreturn memory(read, argmem: readwrite, inaccessiblemem: none) uwtable
define nonnull ptr @Ppmd7_MakeEscFreq(ptr noundef %0, i32 noundef %1, ptr noundef writeonly captures(none) initializes((0, 4)) %2) local_unnamed_addr #5 {
  %4 = load ptr, ptr %0, align 8, !tbaa !32
  %5 = load i16, ptr %4, align 4, !tbaa !35
  %.not = icmp eq i16 %5, 256
  br i1 %.not, label %52, label %6

6:                                                ; preds = %3
  %7 = zext i16 %5 to i32
  %8 = sub i32 %7, %1
  %9 = getelementptr inbounds nuw i8, ptr %0, i64 1200
  %10 = getelementptr inbounds nuw i8, ptr %0, i64 428
  %11 = add i32 %8, -1
  %12 = zext i32 %11 to i64
  %13 = getelementptr inbounds nuw [256 x i8], ptr %10, i64 0, i64 %12
  %14 = load i8, ptr %13, align 1, !tbaa !13
  %15 = zext i8 %14 to i64
  %16 = getelementptr inbounds nuw [25 x [16 x %struct.CPpmd_See]], ptr %9, i64 0, i64 %15
  %17 = getelementptr inbounds nuw i8, ptr %0, i64 64
  %18 = load ptr, ptr %17, align 8, !tbaa !3
  %19 = getelementptr inbounds nuw i8, ptr %4, i64 8
  %20 = load i32, ptr %19, align 4, !tbaa !33
  %21 = zext i32 %20 to i64
  %22 = getelementptr inbounds nuw i8, ptr %18, i64 %21
  %23 = load i16, ptr %22, align 4, !tbaa !35
  %24 = zext i16 %23 to i32
  %25 = sub nsw i32 %24, %7
  %26 = icmp ult i32 %8, %25
  %27 = zext i1 %26 to i64
  %28 = getelementptr inbounds nuw %struct.CPpmd_See, ptr %16, i64 %27
  %29 = getelementptr inbounds nuw i8, ptr %4, i64 2
  %30 = load i16, ptr %29, align 2, !tbaa !36
  %31 = zext i16 %30 to i32
  %32 = mul nuw nsw i32 %7, 11
  %33 = icmp samesign ugt i32 %32, %31
  %34 = select i1 %33, i64 2, i64 0
  %35 = getelementptr inbounds nuw %struct.CPpmd_See, ptr %28, i64 %34
  %36 = icmp ugt i32 %1, %8
  %37 = select i1 %36, i64 4, i64 0
  %38 = getelementptr inbounds nuw %struct.CPpmd_See, ptr %35, i64 %37
  %39 = getelementptr inbounds nuw i8, ptr %0, i64 40
  %40 = load i32, ptr %39, align 8, !tbaa !49
  %41 = zext i32 %40 to i64
  %42 = getelementptr inbounds nuw %struct.CPpmd_See, ptr %38, i64 %41
  %43 = load i16, ptr %42, align 2, !tbaa !47
  %44 = zext i16 %43 to i32
  %45 = getelementptr inbounds nuw i8, ptr %42, i64 2
  %46 = load i8, ptr %45, align 2, !tbaa !46
  %47 = zext nneg i8 %46 to i32
  %48 = lshr i32 %44, %47
  %49 = trunc nuw i32 %48 to i16
  %50 = sub i16 %43, %49
  store i16 %50, ptr %42, align 2, !tbaa !47
  %51 = tail call i32 @llvm.umax.i32(i32 %48, i32 1)
  br label %54

52:                                               ; preds = %3
  %53 = getelementptr inbounds nuw i8, ptr %0, i64 1196
  br label %54

54:                                               ; preds = %52, %6
  %storemerge = phi i32 [ 1, %52 ], [ %51, %6 ]
  %.0 = phi ptr [ %53, %52 ], [ %42, %6 ]
  store i32 %storemerge, ptr %2, align 4, !tbaa !50
  ret ptr %.0
}